; Function Attrs: mustprogress uwtable
define noundef double @_ZN10open_spiel8RandomMT13RandomUniformEv(ptr noundef nonnull align 8 dereferenceable(5008) %0) unnamed_addr #3 align 2 {
  %2 = getelementptr inbounds nuw i8, ptr %0, i64 8
  %3 = tail call noundef x86_fp80 @logl(x86_fp80 noundef 0xK401F8000000000000000) #11
  %4 = tail call noundef x86_fp80 @logl(x86_fp80 noundef 0xK40008000000000000000) #11
  %5 = fdiv x86_fp80 %3, %4
  %6 = fptoui x86_fp80 %5 to i64
  %7 = add i64 %6, 52
  %8 = udiv i64 %7, %6
  %spec.select.i.i.i.i = tail call i64 @llvm.umax.i64(i64 %8, i64 1)
  br label %select.unfold.i.i.i.i

select.unfold.i.i.i.i:                            ; preds = %select.unfold.i.i.i.i, %1
  %.023.i.i.i.i = phi i64 [ %spec.select.i.i.i.i, %1 ], [ %15, %select.unfold.i.i.i.i ]
  %.01422.i.i.i.i = phi double [ 1.000000e+00, %1 ], [ %14, %select.unfold.i.i.i.i ]
  %.01521.i.i.i.i = phi double [ 0.000000e+00, %1 ], [ %11, %select.unfold.i.i.i.i ]
  %9 = tail call noundef i64 @_ZNSt23mersenne_twister_engineImLm32ELm624ELm397ELm31ELm2567483615ELm11ELm4294967295ELm7ELm2636928640ELm15ELm4022730752ELm18ELm1812433253EEclEv(ptr noundef nonnull align 8 dereferenceable(5000) %2)
  %10 = uitofp i64 %9 to double
  %11 = tail call double @llvm.fmuladd.f64(double %10, double %.01422.i.i.i.i, double %.01521.i.i.i.i)
  %12 = fpext double %.01422.i.i.i.i to x86_fp80
  %13 = fmul x86_fp80 %12, 0xK401F8000000000000000
  %14 = fptrunc x86_fp80 %13 to double
  %15 = add i64 %.023.i.i.i.i, -1
  %.not.i.i.i.i = icmp eq i64 %15, 0
  br i1 %.not.i.i.i.i, label %16, label %select.unfold.i.i.i.i, !llvm.loop !4

16:                                               ; preds = %select.unfold.i.i.i.i
  %17 = fdiv double %11, %14
  %18 = fcmp ult double %17, 1.000000e+00
  br i1 %18, label %_ZNSt25uniform_real_distributionIdEclISt23mersenne_twister_engineImLm32ELm624ELm397ELm31ELm2567483615ELm11ELm4294967295ELm7ELm2636928640ELm15ELm4022730752ELm18ELm1812433253EEEEdRT_.exit, label %19

19:                                               ; preds = %16
  %20 = tail call double @nextafter(double noundef 1.000000e+00, double noundef 0.000000e+00) #11
  br label %_ZNSt25uniform_real_distributionIdEclISt23mersenne_twister_engineImLm32ELm624ELm397ELm31ELm2567483615ELm11ELm4294967295ELm7ELm2636928640ELm15ELm4022730752ELm18ELm1812433253EEEEdRT_.exit

_ZNSt25uniform_real_distributionIdEclISt23mersenne_twister_engineImLm32ELm624ELm397ELm31ELm2567483615ELm11ELm4294967295ELm7ELm2636928640ELm15ELm4022730752ELm18ELm1812433253EEEEdRT_.exit: ; preds = %16, %19
  %.016.i.i.i.i = phi double [ %20, %19 ], [ %17, %16 ]
  %21 = load double, ptr @_ZN10open_spiel12_GLOBAL__N_111uniformDistE.1, align 8
  %22 = tail call noundef double @llvm.fmuladd.f64(double %.016.i.i.i.i, double %21, double 0.000000e+00)
  ret double %22
}